target datalayout = "e-m:e-p270:32:32-p271:32:32-p272:64:64-i64:64-i128:128-f80:128-n8:16:32:64-S128"
target triple = "x86_64-pc-linux-gnu"

%"class.OpenColorIO_v2_5dev::CDLTransformImpl" = type { %"class.OpenColorIO_v2_5dev::CDLTransform", %"class.std::__cxx11::basic_string", %"class.OpenColorIO_v2_5dev::CDLOpData" }
%"class.OpenColorIO_v2_5dev::CDLTransform" = type { %"class.OpenColorIO_v2_5dev::Transform" }
%"class.OpenColorIO_v2_5dev::Transform" = type { ptr }
%"class.std::__cxx11::basic_string" = type { %"struct.std::__cxx11::basic_string<char>::_Alloc_hider", i64, %union.anon }
%"struct.std::__cxx11::basic_string<char>::_Alloc_hider" = type { ptr }
%union.anon = type { i64, [8 x i8] }
%"class.OpenColorIO_v2_5dev::CDLOpData" = type { %"class.OpenColorIO_v2_5dev::OpData", i32, %"struct.OpenColorIO_v2_5dev::CDLOpData::ChannelParams", %"struct.OpenColorIO_v2_5dev::CDLOpData::ChannelParams", %"struct.OpenColorIO_v2_5dev::CDLOpData::ChannelParams", double }
%"class.OpenColorIO_v2_5dev::OpData" = type { ptr, %"class.std::mutex", %"class.OpenColorIO_v2_5dev::FormatMetadataImpl" }
%"class.std::mutex" = type { %"class.std::__mutex_base" }
%"class.std::__mutex_base" = type { %union.pthread_mutex_t }
%union.pthread_mutex_t = type { %struct.__pthread_mutex_s }
%struct.__pthread_mutex_s = type { i32, i32, i32, i32, i32, i16, i16, %struct.__pthread_internal_list }
%struct.__pthread_internal_list = type { ptr, ptr }
%"class.OpenColorIO_v2_5dev::FormatMetadataImpl" = type { %"class.OpenColorIO_v2_5dev::FormatMetadata", %"class.std::__cxx11::basic_string", %"class.std::__cxx11::basic_string", %"class.std::vector", %"class.std::vector.3" }
%"class.OpenColorIO_v2_5dev::FormatMetadata" = type { ptr }
%"class.std::vector" = type { %"struct.std::_Vector_base" }
%"struct.std::_Vector_base" = type { %"struct.std::_Vector_base<std::pair<std::__cxx11::basic_string<char>, std::__cxx11::basic_string<char>>, std::allocator<std::pair<std::__cxx11::basic_string<char>, std::__cxx11::basic_string<char>>>>::_Vector_impl" }
%"struct.std::_Vector_base<std::pair<std::__cxx11::basic_string<char>, std::__cxx11::basic_string<char>>, std::allocator<std::pair<std::__cxx11::basic_string<char>, std::__cxx11::basic_string<char>>>>::_Vector_impl" = type { %"struct.std::_Vector_base<std::pair<std::__cxx11::basic_string<char>, std::__cxx11::basic_string<char>>, std::allocator<std::pair<std::__cxx11::basic_string<char>, std::__cxx11::basic_string<char>>>>::_Vector_impl_data" }
%"struct.std::_Vector_base<std::pair<std::__cxx11::basic_string<char>, std::__cxx11::basic_string<char>>, std::allocator<std::pair<std::__cxx11::basic_string<char>, std::__cxx11::basic_string<char>>>>::_Vector_impl_data" = type { ptr, ptr, ptr }
%"class.std::vector.3" = type { %"struct.std::_Vector_base.4" }
%"struct.std::_Vector_base.4" = type { %"struct.std::_Vector_base<OpenColorIO_v2_5dev::FormatMetadataImpl, std::allocator<OpenColorIO_v2_5dev::FormatMetadataImpl>>::_Vector_impl" }
%"struct.std::_Vector_base<OpenColorIO_v2_5dev::FormatMetadataImpl, std::allocator<OpenColorIO_v2_5dev::FormatMetadataImpl>>::_Vector_impl" = type { %"struct.std::_Vector_base<OpenColorIO_v2_5dev::FormatMetadataImpl, std::allocator<OpenColorIO_v2_5dev::FormatMetadataImpl>>::_Vector_impl_data" }
%"struct.std::_Vector_base<OpenColorIO_v2_5dev::FormatMetadataImpl, std::allocator<OpenColorIO_v2_5dev::FormatMetadataImpl>>::_Vector_impl_data" = type { ptr, ptr, ptr }
%"struct.OpenColorIO_v2_5dev::CDLOpData::ChannelParams" = type { [3 x double] }

@_ZTIN19OpenColorIO_v2_5dev9ExceptionE = external constant ptr
@.str.12 = private unnamed_addr constant [36 x i8] c"CDLTransform: Invalid 'SOP' pointer\00", align 1

; Function Attrs: mustprogress nounwind uwtable
define linkonce_odr hidden void @_ZN19OpenColorIO_v2_5dev9CDLOpData13ChannelParams6setRGBEddd(ptr noundef nonnull align 8 dereferenceable(24) %0, double noundef %1, double noundef %2, double noundef %3) #8 comdat align 2 {
  %5 = alloca ptr, align 8
  %6 = alloca double, align 8
  %7 = alloca double, align 8
  %8 = alloca double, align 8
  store ptr %0, ptr %5, align 8, !tbaa !99
  store double %1, ptr %6, align 8, !tbaa !98
  store double %2, ptr %7, align 8, !tbaa !98
  store double %3, ptr %8, align 8, !tbaa !98
  %9 = load ptr, ptr %5, align 8
  %10 = load double, ptr %6, align 8, !tbaa !98
  %11 = getelementptr inbounds nuw %"struct.OpenColorIO_v2_5dev::CDLOpData::ChannelParams", ptr %9, i32 0, i32 0
  %12 = getelementptr inbounds [3 x double], ptr %11, i64 0, i64 0
  store double %10, ptr %12, align 8, !tbaa !98
  %13 = load double, ptr %7, align 8, !tbaa !98
  %14 = getelementptr inbounds nuw %"struct.OpenColorIO_v2_5dev::CDLOpData::ChannelParams", ptr %9, i32 0, i32 0
  %15 = getelementptr inbounds [3 x double], ptr %14, i64 0, i64 1
  store double %13, ptr %15, align 8, !tbaa !98
  %16 = load double, ptr %8, align 8, !tbaa !98
  %17 = getelementptr inbounds nuw %"struct.OpenColorIO_v2_5dev::CDLOpData::ChannelParams", ptr %9, i32 0, i32 0
  %18 = getelementptr inbounds [3 x double], ptr %17, i64 0, i64 2
  store double %16, ptr %18, align 8, !tbaa !98
  ret void
}

; Function Attrs: mustprogress uwtable
define linkonce_odr hidden void @_ZN19OpenColorIO_v2_5dev9CDLOpData13ChannelParamsC2Eddd(ptr noundef nonnull align 8 dereferenceable(24) %0, double noundef %1, double noundef %2, double noundef %3) unnamed_addr #4 comdat align 2 {
  %5 = alloca ptr, align 8
  %6 = alloca double, align 8
  %7 = alloca double, align 8
  %8 = alloca double, align 8
  store ptr %0, ptr %5, align 8, !tbaa !99
  store double %1, ptr %6, align 8, !tbaa !98
  store double %2, ptr %7, align 8, !tbaa !98
  store double %3, ptr %8, align 8, !tbaa !98
  %9 = load ptr, ptr %5, align 8
  %10 = load double, ptr %6, align 8, !tbaa !98
  %11 = load double, ptr %7, align 8, !tbaa !98
  %12 = load double, ptr %8, align 8, !tbaa !98
  call void @_ZN19OpenColorIO_v2_5dev9CDLOpData13ChannelParams6setRGBEddd(ptr noundef nonnull align 8 dereferenceable(24) %9, double noundef %10, double noundef %11, double noundef %12)
  ret void
}

; Function Attrs: mustprogress nounwind uwtable
define linkonce_odr hidden noundef nonnull align 8 dereferenceable(256) ptr @_ZN19OpenColorIO_v2_5dev16CDLTransformImpl4dataEv(ptr noundef nonnull align 8 dereferenceable(296) %0) #8 comdat align 2 {
  %2 = alloca ptr, align 8
  store ptr %0, ptr %2, align 8, !tbaa !3
  %3 = load ptr, ptr %2, align 8
  %4 = getelementptr inbounds nuw %"class.OpenColorIO_v2_5dev::CDLTransformImpl", ptr %3, i32 0, i32 2
  ret ptr %4
}

; Function Attrs: mustprogress uwtable
define hidden void @_ZN19OpenColorIO_v2_5dev16CDLTransformImpl6setSOPEPKd(ptr noundef nonnull align 8 dereferenceable(296) %0, ptr noundef %1) unnamed_addr #4 align 2 personality ptr @__gxx_personality_v0 {
  %3 = alloca ptr, align 8
  %4 = alloca ptr, align 8
  %5 = alloca ptr, align 8
  %6 = alloca i32, align 4
  %7 = alloca %"struct.OpenColorIO_v2_5dev::CDLOpData::ChannelParams", align 8
  %8 = alloca %"struct.OpenColorIO_v2_5dev::CDLOpData::ChannelParams", align 8
  %9 = alloca %"struct.OpenColorIO_v2_5dev::CDLOpData::ChannelParams", align 8
  store ptr %0, ptr %3, align 8, !tbaa !3
  store ptr %1, ptr %4, align 8, !tbaa !96
  %10 = load ptr, ptr %3, align 8
  %11 = load ptr, ptr %4, align 8, !tbaa !96
  %12 = icmp ne ptr %11, null
  br i1 %12, label %20, label %13

13:                                               ; preds = %2
  %14 = call ptr @__cxa_allocate_exception(i64 16) #3
  invoke void @_ZN19OpenColorIO_v2_5dev9ExceptionC1EPKc(ptr noundef nonnull align 8 dereferenceable(16) %14, ptr noundef @.str.12)
          to label %15 unwind label %16

15:                                               ; preds = %13
  call void @__cxa_throw(ptr %14, ptr @_ZTIN19OpenColorIO_v2_5dev9ExceptionE, ptr @_ZN19OpenColorIO_v2_5dev9ExceptionD1Ev) #24
  unreachable

16:                                               ; preds = %13
  %17 = landingpad { ptr, i32 }
          cleanup
  %18 = extractvalue { ptr, i32 } %17, 0
  store ptr %18, ptr %5, align 8
  %19 = extractvalue { ptr, i32 } %17, 1
  store i32 %19, ptr %6, align 4
  call void @__cxa_free_exception(ptr %14) #3
  br label %51

20:                                               ; preds = %2
  %21 = call noundef nonnull align 8 dereferenceable(256) ptr @_ZN19OpenColorIO_v2_5dev16CDLTransformImpl4dataEv(ptr noundef nonnull align 8 dereferenceable(296) %10) #3
  call void @llvm.lifetime.start.p0(i64 24, ptr %7) #3
  %22 = load ptr, ptr %4, align 8, !tbaa !96
  %23 = getelementptr inbounds double, ptr %22, i64 0
  %24 = load double, ptr %23, align 8, !tbaa !98
  %25 = load ptr, ptr %4, align 8, !tbaa !96
  %26 = getelementptr inbounds double, ptr %25, i64 1
  %27 = load double, ptr %26, align 8, !tbaa !98
  %28 = load ptr, ptr %4, align 8, !tbaa !96
  %29 = getelementptr inbounds double, ptr %28, i64 2
  %30 = load double, ptr %29, align 8, !tbaa !98
  call void @_ZN19OpenColorIO_v2_5dev9CDLOpData13ChannelParamsC2Eddd(ptr noundef nonnull align 8 dereferenceable(24) %7, double noundef %24, double noundef %27, double noundef %30)
  call void @_ZN19OpenColorIO_v2_5dev9CDLOpData14setSlopeParamsERKNS0_13ChannelParamsE(ptr noundef nonnull align 8 dereferenceable(256) %21, ptr noundef nonnull align 8 dereferenceable(24) %7)
  call void @llvm.lifetime.end.p0(i64 24, ptr %7) #3
  %31 = call noundef nonnull align 8 dereferenceable(256) ptr @_ZN19OpenColorIO_v2_5dev16CDLTransformImpl4dataEv(ptr noundef nonnull align 8 dereferenceable(296) %10) #3
  call void @llvm.lifetime.start.p0(i64 24, ptr %8) #3
  %32 = load ptr, ptr %4, align 8, !tbaa !96
  %33 = getelementptr inbounds double, ptr %32, i64 3
  %34 = load double, ptr %33, align 8, !tbaa !98
  %35 = load ptr, ptr %4, align 8, !tbaa !96
  %36 = getelementptr inbounds double, ptr %35, i64 4
  %37 = load double, ptr %36, align 8, !tbaa !98
  %38 = load ptr, ptr %4, align 8, !tbaa !96
  %39 = getelementptr inbounds double, ptr %38, i64 5
  %40 = load double, ptr %39, align 8, !tbaa !98
  call void @_ZN19OpenColorIO_v2_5dev9CDLOpData13ChannelParamsC2Eddd(ptr noundef nonnull align 8 dereferenceable(24) %8, double noundef %34, double noundef %37, double noundef %40)
  call void @_ZN19OpenColorIO_v2_5dev9CDLOpData15setOffsetParamsERKNS0_13ChannelParamsE(ptr noundef nonnull align 8 dereferenceable(256) %31, ptr noundef nonnull align 8 dereferenceable(24) %8)
  call void @llvm.lifetime.end.p0(i64 24, ptr %8) #3
  %41 = call noundef nonnull align 8 dereferenceable(256) ptr @_ZN19OpenColorIO_v2_5dev16CDLTransformImpl4dataEv(ptr noundef nonnull align 8 dereferenceable(296) %10) #3
  call void @llvm.lifetime.start.p0(i64 24, ptr %9) #3
  %42 = load ptr, ptr %4, align 8, !tbaa !96
  %43 = getelementptr inbounds double, ptr %42, i64 6
  %44 = load double, ptr %43, align 8, !tbaa !98
  %45 = load ptr, ptr %4, align 8, !tbaa !96
  %46 = getelementptr inbounds double, ptr %45, i64 7
  %47 = load double, ptr %46, align 8, !tbaa !98
  %48 = load ptr, ptr %4, align 8, !tbaa !96
  %49 = getelementptr inbounds double, ptr %48, i64 8
  %50 = load double, ptr %49, align 8, !tbaa !98
  call void @_ZN19OpenColorIO_v2_5dev9CDLOpData13ChannelParamsC2Eddd(ptr noundef nonnull align 8 dereferenceable(24) %9, double noundef %44, double noundef %47, double noundef %50)
  call void @_ZN19OpenColorIO_v2_5dev9CDLOpData14setPowerParamsERKNS0_13ChannelParamsE(ptr noundef nonnull align 8 dereferenceable(256) %41, ptr noundef nonnull align 8 dereferenceable(24) %9)
  call void @llvm.lifetime.end.p0(i64 24, ptr %9) #3
  ret void

51:                                               ; preds = %16
  %52 = load ptr, ptr %5, align 8
  %53 = load i32, ptr %6, align 4
  %54 = insertvalue { ptr, i32 } poison, ptr %52, 0
  %55 = insertvalue { ptr, i32 } %54, i32 %53, 1
  resume { ptr, i32 } %55
}