; Function Attrs: mustprogress uwtable
define hidden void @_ZN19OpenColorIO_v2_5dev16CDLTransformImpl6setSOPEPKd(ptr noundef nonnull align 8 dereferenceable(296) %0, ptr noundef readonly %1) unnamed_addr #3 align 2 personality ptr @__gxx_personality_v0 {
  %3 = alloca %"struct.OpenColorIO_v2_5dev::CDLOpData::ChannelParams", align 8
  %4 = alloca %"struct.OpenColorIO_v2_5dev::CDLOpData::ChannelParams", align 8
  %5 = alloca %"struct.OpenColorIO_v2_5dev::CDLOpData::ChannelParams", align 8
  %.not = icmp eq ptr %1, null
  br i1 %.not, label %6, label %11

6:                                                ; preds = %2
  %7 = tail call ptr @__cxa_allocate_exception(i64 16) #26
  invoke void @_ZN19OpenColorIO_v2_5dev9ExceptionC1EPKc(ptr noundef nonnull align 8 dereferenceable(16) %7, ptr noundef nonnull @.str.12)
          to label %8 unwind label %9

8:                                                ; preds = %6
  tail call void @__cxa_throw(ptr nonnull %7, ptr nonnull @_ZTIN19OpenColorIO_v2_5dev9ExceptionE, ptr nonnull @_ZN19OpenColorIO_v2_5dev9ExceptionD1Ev) #27
  unreachable

9:                                                ; preds = %6
  %10 = landingpad { ptr, i32 }
          cleanup
  tail call void @__cxa_free_exception(ptr nonnull %7) #26
  resume { ptr, i32 } %10

11:                                               ; preds = %2
  %12 = getelementptr inbounds nuw i8, ptr %0, i64 40
  call void @llvm.lifetime.start.p0(i64 24, ptr nonnull %3) #26
  %13 = load double, ptr %1, align 8, !tbaa !82
  %14 = getelementptr inbounds nuw i8, ptr %1, i64 8
  %15 = load double, ptr %14, align 8, !tbaa !82
  %16 = getelementptr inbounds nuw i8, ptr %1, i64 16
  %17 = load double, ptr %16, align 8, !tbaa !82
  store double %13, ptr %3, align 8, !tbaa !82
  %18 = getelementptr inbounds nuw i8, ptr %3, i64 8
  store double %15, ptr %18, align 8, !tbaa !82
  %19 = getelementptr inbounds nuw i8, ptr %3, i64 16
  store double %17, ptr %19, align 8, !tbaa !82
  call void @_ZN19OpenColorIO_v2_5dev9CDLOpData14setSlopeParamsERKNS0_13ChannelParamsE(ptr noundef nonnull align 8 dereferenceable(256) %12, ptr noundef nonnull align 8 dereferenceable(24) %3)
  call void @llvm.lifetime.end.p0(i64 24, ptr nonnull %3) #26
  call void @llvm.lifetime.start.p0(i64 24, ptr nonnull %4) #26
  %20 = getelementptr inbounds nuw i8, ptr %1, i64 24
  %21 = load double, ptr %20, align 8, !tbaa !82
  %22 = getelementptr inbounds nuw i8, ptr %1, i64 32
  %23 = load double, ptr %22, align 8, !tbaa !82
  %24 = getelementptr inbounds nuw i8, ptr %1, i64 40
  %25 = load double, ptr %24, align 8, !tbaa !82
  store double %21, ptr %4, align 8, !tbaa !82
  %26 = getelementptr inbounds nuw i8, ptr %4, i64 8
  store double %23, ptr %26, align 8, !tbaa !82
  %27 = getelementptr inbounds nuw i8, ptr %4, i64 16
  store double %25, ptr %27, align 8, !tbaa !82
  call void @_ZN19OpenColorIO_v2_5dev9CDLOpData15setOffsetParamsERKNS0_13ChannelParamsE(ptr noundef nonnull align 8 dereferenceable(256) %12, ptr noundef nonnull align 8 dereferenceable(24) %4)
  call void @llvm.lifetime.end.p0(i64 24, ptr nonnull %4) #26
  call void @llvm.lifetime.start.p0(i64 24, ptr nonnull %5) #26
  %28 = getelementptr inbounds nuw i8, ptr %1, i64 48
  %29 = load double, ptr %28, align 8, !tbaa !82
  %30 = getelementptr inbounds nuw i8, ptr %1, i64 56
  %31 = load double, ptr %30, align 8, !tbaa !82
  %32 = getelementptr inbounds nuw i8, ptr %1, i64 64
  %33 = load double, ptr %32, align 8, !tbaa !82
  store double %29, ptr %5, align 8, !tbaa !82
  %34 = getelementptr inbounds nuw i8, ptr %5, i64 8
  store double %31, ptr %34, align 8, !tbaa !82
  %35 = getelementptr inbounds nuw i8, ptr %5, i64 16
  store double %33, ptr %35, align 8, !tbaa !82
  call void @_ZN19OpenColorIO_v2_5dev9CDLOpData14setPowerParamsERKNS0_13ChannelParamsE(ptr noundef nonnull align 8 dereferenceable(256) %12, ptr noundef nonnull align 8 dereferenceable(24) %5)
  call void @llvm.lifetime.end.p0(i64 24, ptr nonnull %5) #26
  ret void
}